; Function Attrs: nounwind uwtable
define internal void @fn_error_va_fl(ptr noundef %0, i32 noundef %1, ptr noundef %2, ptr noundef %3) #0 {
  %5 = alloca [1 x %struct.__va_list_tag], align 16
  %6 = alloca %struct.strbuf, align 8
  call void @llvm.lifetime.start.p0(i64 24, ptr nonnull %6) #7
  call void @llvm.memcpy.p0.p0.i64(ptr noundef nonnull align 8 dereferenceable(24) %6, ptr noundef nonnull align 8 dereferenceable(24) @__const.fn_counter.buf_payload, i64 24, i1 false)
  %.not.i = icmp eq ptr %2, null
  br i1 %.not.i, label %maybe_append_string_va.exit, label %7

7:                                                ; preds = %4
  %8 = load i8, ptr %2, align 1, !tbaa !4
  %.not5.i = icmp eq i8 %8, 0
  br i1 %.not5.i, label %maybe_append_string_va.exit, label %9

9:                                                ; preds = %7
  call void @llvm.lifetime.start.p0(i64 24, ptr nonnull %5) #7
  call void @llvm.va_copy.p0(ptr nonnull %5, ptr %3)
  call void @strbuf_vaddf(ptr noundef nonnull %6, ptr noundef nonnull %2, ptr noundef nonnull %5) #7
  call void @llvm.va_end.p0(ptr nonnull %5)
  call void @llvm.lifetime.end.p0(i64 24, ptr nonnull %5) #7
  br label %maybe_append_string_va.exit

maybe_append_string_va.exit:                      ; preds = %4, %7, %9
  call fastcc void @perf_io_write_fl(ptr noundef %0, i32 noundef %1, ptr noundef nonnull @.str.22, ptr noundef null, ptr noundef null, ptr noundef null, ptr noundef null, ptr noundef %6)
  call void @strbuf_release(ptr noundef nonnull %6) #7
  call void @llvm.lifetime.end.p0(i64 24, ptr nonnull %6) #7
  ret void
}